
P07_Servo.elf:     file format elf32-avr

Sections:
Idx Name          Size      VMA       LMA       File off  Algn
  0 .data         00000000  00800100  00800100  00000160  2**0
                  CONTENTS, ALLOC, LOAD, DATA
  1 .text         0000010c  00000000  00000000  00000054  2**1
                  CONTENTS, ALLOC, LOAD, READONLY, CODE
  2 .comment      00000030  00000000  00000000  00000160  2**0
                  CONTENTS, READONLY
  3 .note.gnu.avr.deviceinfo 00000040  00000000  00000000  00000190  2**2
                  CONTENTS, READONLY
  4 .debug_aranges 00000038  00000000  00000000  000001d0  2**0
                  CONTENTS, READONLY, DEBUGGING
  5 .debug_info   000007ba  00000000  00000000  00000208  2**0
                  CONTENTS, READONLY, DEBUGGING
  6 .debug_abbrev 000006b5  00000000  00000000  000009c2  2**0
                  CONTENTS, READONLY, DEBUGGING
  7 .debug_line   000002e6  00000000  00000000  00001077  2**0
                  CONTENTS, READONLY, DEBUGGING
  8 .debug_frame  00000054  00000000  00000000  00001360  2**2
                  CONTENTS, READONLY, DEBUGGING
  9 .debug_str    000003b7  00000000  00000000  000013b4  2**0
                  CONTENTS, READONLY, DEBUGGING
 10 .debug_ranges 00000028  00000000  00000000  0000176b  2**0
                  CONTENTS, READONLY, DEBUGGING

Disassembly of section .text:

00000000 <__vectors>:
   0:	0c 94 34 00 	jmp	0x68	; 0x68 <__ctors_end>
   4:	0c 94 3e 00 	jmp	0x7c	; 0x7c <__bad_interrupt>
   8:	0c 94 3e 00 	jmp	0x7c	; 0x7c <__bad_interrupt>
   c:	0c 94 3e 00 	jmp	0x7c	; 0x7c <__bad_interrupt>
  10:	0c 94 3e 00 	jmp	0x7c	; 0x7c <__bad_interrupt>
  14:	0c 94 3e 00 	jmp	0x7c	; 0x7c <__bad_interrupt>
  18:	0c 94 3e 00 	jmp	0x7c	; 0x7c <__bad_interrupt>
  1c:	0c 94 3e 00 	jmp	0x7c	; 0x7c <__bad_interrupt>
  20:	0c 94 3e 00 	jmp	0x7c	; 0x7c <__bad_interrupt>
  24:	0c 94 3e 00 	jmp	0x7c	; 0x7c <__bad_interrupt>
  28:	0c 94 3e 00 	jmp	0x7c	; 0x7c <__bad_interrupt>
  2c:	0c 94 3e 00 	jmp	0x7c	; 0x7c <__bad_interrupt>
  30:	0c 94 3e 00 	jmp	0x7c	; 0x7c <__bad_interrupt>
  34:	0c 94 3e 00 	jmp	0x7c	; 0x7c <__bad_interrupt>
  38:	0c 94 3e 00 	jmp	0x7c	; 0x7c <__bad_interrupt>
  3c:	0c 94 3e 00 	jmp	0x7c	; 0x7c <__bad_interrupt>
  40:	0c 94 3e 00 	jmp	0x7c	; 0x7c <__bad_interrupt>
  44:	0c 94 3e 00 	jmp	0x7c	; 0x7c <__bad_interrupt>
  48:	0c 94 3e 00 	jmp	0x7c	; 0x7c <__bad_interrupt>
  4c:	0c 94 3e 00 	jmp	0x7c	; 0x7c <__bad_interrupt>
  50:	0c 94 3e 00 	jmp	0x7c	; 0x7c <__bad_interrupt>
  54:	0c 94 3e 00 	jmp	0x7c	; 0x7c <__bad_interrupt>
  58:	0c 94 3e 00 	jmp	0x7c	; 0x7c <__bad_interrupt>
  5c:	0c 94 3e 00 	jmp	0x7c	; 0x7c <__bad_interrupt>
  60:	0c 94 3e 00 	jmp	0x7c	; 0x7c <__bad_interrupt>
  64:	0c 94 3e 00 	jmp	0x7c	; 0x7c <__bad_interrupt>

00000068 <__ctors_end>:
  68:	11 24       	eor	r1, r1
  6a:	1f be       	out	0x3f, r1	; 63
  6c:	cf ef       	ldi	r28, 0xFF	; 255
  6e:	d8 e0       	ldi	r29, 0x08	; 8
  70:	de bf       	out	0x3e, r29	; 62
  72:	cd bf       	out	0x3d, r28	; 61
  74:	0e 94 60 00 	call	0xc0	; 0xc0 <main>
  78:	0c 94 84 00 	jmp	0x108	; 0x108 <_exit>

0000007c <__bad_interrupt>:
  7c:	0c 94 00 00 	jmp	0	; 0x0 <__vectors>

00000080 <conf_Timer1>:
	TIMSK1=(0<<ICIE1)|(0<<OCIE1B)|(0<<OCIE1A)|(0<<TOIE1);
	TIFR1=(0<<ICF1)|(0<<OCF1B)|(0<<OCF1A)|(0<<TOV1);
}

void start_Timer1(){
	TCCR1B=(0<<ICNC1)|(0<<ICES1)|(1<<WGM13)|(1<<WGM12)|(0<<CS12)|(1<<CS11)|(0<<CS10);
  80:	82 e2       	ldi	r24, 0x22	; 34
  82:	80 93 80 00 	sts	0x0080, r24	; 0x800080 <__TEXT_REGION_LENGTH__+0x7e0080>
  86:	88 e1       	ldi	r24, 0x18	; 24
  88:	80 93 81 00 	sts	0x0081, r24	; 0x800081 <__TEXT_REGION_LENGTH__+0x7e0081>
  8c:	10 92 82 00 	sts	0x0082, r1	; 0x800082 <__TEXT_REGION_LENGTH__+0x7e0082>
  90:	10 92 85 00 	sts	0x0085, r1	; 0x800085 <__TEXT_REGION_LENGTH__+0x7e0085>
  94:	10 92 84 00 	sts	0x0084, r1	; 0x800084 <__TEXT_REGION_LENGTH__+0x7e0084>
  98:	8f ef       	ldi	r24, 0xFF	; 255
  9a:	9f e8       	ldi	r25, 0x8F	; 143
  9c:	90 93 87 00 	sts	0x0087, r25	; 0x800087 <__TEXT_REGION_LENGTH__+0x7e0087>
  a0:	80 93 86 00 	sts	0x0086, r24	; 0x800086 <__TEXT_REGION_LENGTH__+0x7e0086>
  a4:	10 92 89 00 	sts	0x0089, r1	; 0x800089 <__TEXT_REGION_LENGTH__+0x7e0089>
  a8:	10 92 88 00 	sts	0x0088, r1	; 0x800088 <__TEXT_REGION_LENGTH__+0x7e0088>
  ac:	8e e1       	ldi	r24, 0x1E	; 30
  ae:	9f e0       	ldi	r25, 0x0F	; 15
  b0:	90 93 8b 00 	sts	0x008B, r25	; 0x80008b <__TEXT_REGION_LENGTH__+0x7e008b>
  b4:	80 93 8a 00 	sts	0x008A, r24	; 0x80008a <__TEXT_REGION_LENGTH__+0x7e008a>
  b8:	10 92 6f 00 	sts	0x006F, r1	; 0x80006f <__TEXT_REGION_LENGTH__+0x7e006f>
  bc:	16 ba       	out	0x16, r1	; 22
  be:	08 95       	ret

000000c0 <main>:
void conf_puertos();//declaracion de prototipo
void conf_Timer1();//funcion prototipo de timer
void start_Timer1();

void conf_puertos(){
	DDRB=0x04;//configurar OC1B como salida
  c0:	84 e0       	ldi	r24, 0x04	; 4
  c2:	84 b9       	out	0x04, r24	; 4
}

int main(void)
{
	conf_puertos();
	conf_Timer1();
  c4:	0e 94 40 00 	call	0x80	; 0x80 <conf_Timer1>
	TIMSK1=(0<<ICIE1)|(0<<OCIE1B)|(0<<OCIE1A)|(0<<TOIE1);
	TIFR1=(0<<ICF1)|(0<<OCF1B)|(0<<OCF1A)|(0<<TOV1);
}

void start_Timer1(){
	TCCR1B=(0<<ICNC1)|(0<<ICES1)|(1<<WGM13)|(1<<WGM12)|(0<<CS12)|(1<<CS11)|(0<<CS10);
  c8:	8a e1       	ldi	r24, 0x1A	; 26
  ca:	80 93 81 00 	sts	0x0081, r24	; 0x800081 <__TEXT_REGION_LENGTH__+0x7e0081>
	#else
		//round up by default
		__ticks_dc = (uint32_t)(ceil(fabs(__tmp)));
	#endif

	__builtin_avr_delay_cycles(__ticks_dc);
  ce:	2f ef       	ldi	r18, 0xFF	; 255
  d0:	8f ef       	ldi	r24, 0xFF	; 255
  d2:	99 e5       	ldi	r25, 0x59	; 89
  d4:	21 50       	subi	r18, 0x01	; 1
  d6:	80 40       	sbci	r24, 0x00	; 0
  d8:	90 40       	sbci	r25, 0x00	; 0
  da:	e1 f7       	brne	.-8      	; 0xd4 <main+0x14>
  dc:	00 c0       	rjmp	.+0      	; 0xde <main+0x1e>
  de:	00 00       	nop
{
	conf_puertos();
	conf_Timer1();
	start_Timer1();
	_delay_ms(2000);
	OCR1B=2396;//ciclo de trabajo
  e0:	ea e8       	ldi	r30, 0x8A	; 138
  e2:	f0 e0       	ldi	r31, 0x00	; 0
  e4:	8c e5       	ldi	r24, 0x5C	; 92
  e6:	99 e0       	ldi	r25, 0x09	; 9
  e8:	91 83       	std	Z+1, r25	; 0x01
  ea:	80 83       	st	Z, r24
  ec:	2f ef       	ldi	r18, 0xFF	; 255
  ee:	8f ef       	ldi	r24, 0xFF	; 255
  f0:	99 e5       	ldi	r25, 0x59	; 89
  f2:	21 50       	subi	r18, 0x01	; 1
  f4:	80 40       	sbci	r24, 0x00	; 0
  f6:	90 40       	sbci	r25, 0x00	; 0
  f8:	e1 f7       	brne	.-8      	; 0xf2 <main+0x32>
  fa:	00 c0       	rjmp	.+0      	; 0xfc <main+0x3c>
  fc:	00 00       	nop
	_delay_ms(2000);
	OCR1B=1100;
  fe:	8c e4       	ldi	r24, 0x4C	; 76
 100:	94 e0       	ldi	r25, 0x04	; 4
 102:	91 83       	std	Z+1, r25	; 0x01
 104:	80 83       	st	Z, r24
	/* Replace with your application code */
	while (1)
	{
	}
 106:	ff cf       	rjmp	.-2      	; 0x106 <main+0x46>

00000108 <_exit>:
 108:	f8 94       	cli

0000010a <__stop_program>:
 10a:	ff cf       	rjmp	.-2      	; 0x10a <__stop_program>
